; Function Attrs: nounwind uwtable
define range(i32 -1, 1) i32 @cl_update_hash(ptr noundef %0, ptr noundef %1, i64 noundef %2) local_unnamed_addr #1 {
  %4 = icmp ne ptr %0, null
  %5 = icmp ne ptr %1, null
  %or.cond = and i1 %4, %5
  br i1 %or.cond, label %6, label %8

6:                                                ; preds = %3
  %7 = tail call i32 @EVP_DigestUpdate(ptr noundef nonnull %0, ptr noundef nonnull %1, i64 noundef %2) #12
  %.not = icmp eq i32 %7, 0
  %spec.select = sext i1 %.not to i32
  br label %8

8:                                                ; preds = %6, %3
  %.0 = phi i32 [ -1, %3 ], [ %spec.select, %6 ]
  ret i32 %.0
}